target datalayout = "e-m:e-p270:32:32-p271:32:32-p272:64:64-i64:64-i128:128-f80:128-n8:16:32:64-S128"
target triple = "x86_64-pc-linux-gnu"

%class.ClassPathEntry = type { ptr, ptr }
%class.ClassPathZipEntry = type <{ %class.ClassPathEntry, ptr, ptr, i8, [7 x i8] }>

; Function Attrs: mustprogress nounwind uwtable
define hidden noundef ptr @_ZN14ClassPathEntry9copy_pathEPKc(ptr noundef nonnull align 8 dereferenceable(16) %0, ptr noundef %1) #1 align 2 {
  %3 = alloca ptr, align 8
  %4 = alloca ptr, align 8
  %5 = alloca ptr, align 8
  store ptr %0, ptr %3, align 8
  store ptr %1, ptr %4, align 8
  %6 = load ptr, ptr %4, align 8
  %7 = call i64 @strlen(ptr noundef %6) #12
  %8 = add i64 %7, 1
  %9 = mul i64 %8, 1
  %10 = call noundef ptr @_Z12AllocateHeapm8MEMFLAGSN17AllocFailStrategy13AllocFailEnumE(i64 noundef %9, i8 noundef zeroext 1, i32 noundef 0)
  store ptr %10, ptr %5, align 8
  %11 = load ptr, ptr %5, align 8
  %12 = load ptr, ptr %4, align 8
  %13 = call ptr @strcpy(ptr noundef %11, ptr noundef %12) #13
  %14 = load ptr, ptr %5, align 8
  ret ptr %14
}

; Function Attrs: mustprogress nounwind uwtable
define linkonce_odr hidden void @_ZN14ClassPathEntryC2Ev(ptr noundef nonnull align 8 dereferenceable(16) %0) unnamed_addr #1 comdat align 2 {
  %2 = alloca ptr, align 8
  store ptr %0, ptr %2, align 8
  %3 = load ptr, ptr %2, align 8
  store ptr getelementptr inbounds inrange(-16, 80) ({ [12 x ptr] }, ptr @_ZTV14ClassPathEntry, i32 0, i32 0, i32 2), ptr %3, align 8
  %4 = getelementptr inbounds %class.ClassPathEntry, ptr %3, i32 0, i32 1
  store volatile ptr null, ptr %4, align 8
  ret void
}

; Function Attrs: mustprogress nounwind uwtable
define hidden void @_ZN17ClassPathZipEntryC2EPPvPKcbb(ptr noundef nonnull align 8 dereferenceable(33) %0, ptr noundef %1, ptr noundef %2, i1 noundef zeroext %3, i1 noundef zeroext %4) unnamed_addr #1 align 2 {
  %6 = alloca ptr, align 8
  %7 = alloca ptr, align 8
  %8 = alloca ptr, align 8
  %9 = alloca i8, align 1
  %10 = alloca i8, align 1
  store ptr %0, ptr %6, align 8
  store ptr %1, ptr %7, align 8
  store ptr %2, ptr %8, align 8
  %11 = zext i1 %3 to i8
  store i8 %11, ptr %9, align 1
  %12 = zext i1 %4 to i8
  store i8 %12, ptr %10, align 1
  %13 = load ptr, ptr %6, align 8
  call void @_ZN14ClassPathEntryC2Ev(ptr noundef nonnull align 8 dereferenceable(16) %13)
  store ptr getelementptr inbounds inrange(-16, 80) ({ [12 x ptr] }, ptr @_ZTV17ClassPathZipEntry, i32 0, i32 0, i32 2), ptr %13, align 8
  %14 = load ptr, ptr %7, align 8
  %15 = getelementptr inbounds %class.ClassPathZipEntry, ptr %13, i32 0, i32 1
  store ptr %14, ptr %15, align 8
  %16 = load ptr, ptr %8, align 8
  %17 = call noundef ptr @_ZN14ClassPathEntry9copy_pathEPKc(ptr noundef nonnull align 8 dereferenceable(16) %13, ptr noundef %16)
  %18 = getelementptr inbounds %class.ClassPathZipEntry, ptr %13, i32 0, i32 2
  store ptr %17, ptr %18, align 8
  %19 = load i8, ptr %10, align 1
  %20 = trunc i8 %19 to i1
  %21 = getelementptr inbounds %class.ClassPathZipEntry, ptr %13, i32 0, i32 3
  %22 = zext i1 %20 to i8
  store i8 %22, ptr %21, align 8
  ret void
}