; Function Attrs: mustprogress nounwind uwtable
define hidden void @_ZN17ClassPathZipEntryC2EPPvPKcbb(ptr noundef nonnull align 8 dereferenceable(33) %0, ptr noundef %1, ptr nocapture noundef readonly %2, i1 zeroext %3, i1 noundef zeroext %4) unnamed_addr #0 align 2 {
  %6 = zext i1 %4 to i8
  %7 = getelementptr inbounds i8, ptr %0, i64 8
  store volatile ptr null, ptr %7, align 8
  store ptr getelementptr inbounds inrange(-16, 80) (i8, ptr @_ZTV17ClassPathZipEntry, i64 16), ptr %0, align 8
  %8 = getelementptr inbounds i8, ptr %0, i64 16
  store ptr %1, ptr %8, align 8
  %9 = tail call i64 @strlen(ptr noundef nonnull readonly dereferenceable(1) %2) #21
  %10 = add i64 %9, 1
  %11 = tail call noundef ptr @_Z12AllocateHeapm8MEMFLAGSN17AllocFailStrategy13AllocFailEnumE(i64 noundef %10, i8 noundef zeroext 1, i32 noundef 0) #20
  %12 = tail call ptr @strcpy(ptr noundef nonnull dereferenceable(1) %11, ptr noundef nonnull readonly dereferenceable(1) %2) #20
  %13 = getelementptr inbounds i8, ptr %0, i64 24
  store ptr %11, ptr %13, align 8
  %14 = getelementptr inbounds i8, ptr %0, i64 32
  store i8 %6, ptr %14, align 8
  ret void
}